ccopy_reg
_reconstructor
p0
(cbank
SavingsAccount
p1
c__builtin__
object
p2
Ntp3
Rp4
(dp5
S'_pin'
p6
S'1001'
p7
sS'_balance'
p8
F200.0
sS'_name'
p9
S'Fred'
p10
sb.ccopy_reg
_reconstructor
p0
(cbank
SavingsAccount
p1
c__builtin__
object
p2
Ntp3
Rp4
(dp5
S'_pin'
p6
S'1000'
p7
sS'_balance'
p8
F100.0
sS'_name'
p9
S'Wilma'
p10
sb.